target datalayout = "e-m:e-p270:32:32-p271:32:32-p272:64:64-i64:64-i128:128-f80:128-n8:16:32:64-S128"
target triple = "x86_64-pc-linux-gnu"

%struct.SDL_Haptic = type { i32, ptr, ptr, i32, i32, i32, i32, ptr, i32, i32, %union.SDL_HapticEffect, ptr }
%union.SDL_HapticEffect = type { %struct.SDL_HapticCustom, [16 x i8] }
%struct.SDL_HapticCustom = type { i16, %struct.SDL_HapticDirection, i32, i16, i16, i16, i8, i16, i16, ptr, i16, i16, i16, i16 }
%struct.SDL_HapticDirection = type { i8, [3 x i32] }
%struct.haptic_effect = type { %union.SDL_HapticEffect, ptr }

@.str = private unnamed_addr constant [26 x i8] c"Parameter '%s' is invalid\00", align 1
@.str.1 = private unnamed_addr constant [7 x i8] c"haptic\00", align 1
@.str.6 = private unnamed_addr constant [7 x i8] c"effect\00", align 1
@.str.7 = private unnamed_addr constant [47 x i8] c"Haptic: Effect not supported by haptic device.\00", align 1
@.str.8 = private unnamed_addr constant [39 x i8] c"Haptic: Device has no free space left.\00", align 1

; Function Attrs: nounwind uwtable
define hidden zeroext i1 @SDL_HapticEffectSupported_REAL(ptr noundef %0, ptr noundef %1) #0 {
  %3 = alloca i1, align 1
  %4 = alloca ptr, align 8
  %5 = alloca ptr, align 8
  store ptr %0, ptr %4, align 8
  store ptr %1, ptr %5, align 8
  %6 = load ptr, ptr %4, align 8
  %7 = call zeroext i1 @SDL_ObjectValid(ptr noundef %6, i32 noundef 6)
  br i1 %7, label %10, label %8

8:                                                ; preds = %2
  %9 = call zeroext i1 (ptr, ...) @SDL_SetError_REAL(ptr noundef @.str, ptr noundef @.str.1)
  store i1 false, ptr %3, align 1
  br label %25

10:                                               ; preds = %2
  %11 = load ptr, ptr %5, align 8
  %12 = icmp ne ptr %11, null
  br i1 %12, label %14, label %13

13:                                               ; preds = %10
  store i1 false, ptr %3, align 1
  br label %25

14:                                               ; preds = %10
  %15 = load ptr, ptr %4, align 8
  %16 = getelementptr inbounds nuw %struct.SDL_Haptic, ptr %15, i32 0, i32 5
  %17 = load i32, ptr %16, align 8
  %18 = load ptr, ptr %5, align 8
  %19 = load i16, ptr %18, align 8
  %20 = zext i16 %19 to i32
  %21 = and i32 %17, %20
  %22 = icmp ne i32 %21, 0
  br i1 %22, label %23, label %24

23:                                               ; preds = %14
  store i1 true, ptr %3, align 1
  br label %25

24:                                               ; preds = %14
  store i1 false, ptr %3, align 1
  br label %25

25:                                               ; preds = %24, %23, %13, %8
  %26 = load i1, ptr %3, align 1
  ret i1 %26
}

; Function Attrs: nounwind uwtable
define hidden i32 @SDL_CreateHapticEffect_REAL(ptr noundef %0, ptr noundef %1) #0 {
  %3 = alloca i32, align 4
  %4 = alloca ptr, align 8
  %5 = alloca ptr, align 8
  %6 = alloca i32, align 4
  %7 = alloca i32, align 4
  store ptr %0, ptr %4, align 8
  store ptr %1, ptr %5, align 8
  call void @llvm.lifetime.start.p0(i64 4, ptr %6) #7
  %8 = load ptr, ptr %4, align 8
  %9 = call zeroext i1 @SDL_ObjectValid(ptr noundef %8, i32 noundef 6)
  br i1 %9, label %12, label %10

10:                                               ; preds = %2
  %11 = call zeroext i1 (ptr, ...) @SDL_SetError_REAL(ptr noundef @.str, ptr noundef @.str.1)
  store i32 -1, ptr %3, align 4
  store i32 1, ptr %7, align 4
  br label %76

12:                                               ; preds = %2
  %13 = load ptr, ptr %5, align 8
  %14 = icmp ne ptr %13, null
  br i1 %14, label %17, label %15

15:                                               ; preds = %12
  %16 = call zeroext i1 (ptr, ...) @SDL_SetError_REAL(ptr noundef @.str, ptr noundef @.str.6)
  store i32 -1, ptr %3, align 4
  store i32 1, ptr %7, align 4
  br label %76

17:                                               ; preds = %12
  %18 = load ptr, ptr %4, align 8
  %19 = load ptr, ptr %5, align 8
  %20 = call zeroext i1 @SDL_HapticEffectSupported_REAL(ptr noundef %18, ptr noundef %19)
  %21 = zext i1 %20 to i32
  %22 = icmp eq i32 %21, 0
  br i1 %22, label %23, label %25

23:                                               ; preds = %17
  %24 = call zeroext i1 (ptr, ...) @SDL_SetError_REAL(ptr noundef @.str.7)
  store i32 -1, ptr %3, align 4
  store i32 1, ptr %7, align 4
  br label %76

25:                                               ; preds = %17
  %26 = load ptr, ptr %4, align 8
  %27 = call zeroext i1 @SDL_HIDAPI_HapticIsHidapi(ptr noundef %26)
  br i1 %27, label %28, label %32

28:                                               ; preds = %25
  %29 = load ptr, ptr %4, align 8
  %30 = load ptr, ptr %5, align 8
  %31 = call i32 @SDL_HIDAPI_HapticNewEffect(ptr noundef %29, ptr noundef %30)
  store i32 %31, ptr %3, align 4
  store i32 1, ptr %7, align 4
  br label %76

32:                                               ; preds = %25
  store i32 0, ptr %6, align 4
  br label %33

33:                                               ; preds = %71, %32
  %34 = load i32, ptr %6, align 4
  %35 = load ptr, ptr %4, align 8
  %36 = getelementptr inbounds nuw %struct.SDL_Haptic, ptr %35, i32 0, i32 3
  %37 = load i32, ptr %36, align 8
  %38 = icmp slt i32 %34, %37
  br i1 %38, label %39, label %74

39:                                               ; preds = %33
  %40 = load ptr, ptr %4, align 8
  %41 = getelementptr inbounds nuw %struct.SDL_Haptic, ptr %40, i32 0, i32 2
  %42 = load ptr, ptr %41, align 8
  %43 = load i32, ptr %6, align 4
  %44 = sext i32 %43 to i64
  %45 = getelementptr inbounds %struct.haptic_effect, ptr %42, i64 %44
  %46 = getelementptr inbounds nuw %struct.haptic_effect, ptr %45, i32 0, i32 1
  %47 = load ptr, ptr %46, align 8
  %48 = icmp eq ptr %47, null
  br i1 %48, label %49, label %70

49:                                               ; preds = %39
  %50 = load ptr, ptr %4, align 8
  %51 = load ptr, ptr %4, align 8
  %52 = getelementptr inbounds nuw %struct.SDL_Haptic, ptr %51, i32 0, i32 2
  %53 = load ptr, ptr %52, align 8
  %54 = load i32, ptr %6, align 4
  %55 = sext i32 %54 to i64
  %56 = getelementptr inbounds %struct.haptic_effect, ptr %53, i64 %55
  %57 = load ptr, ptr %5, align 8
  %58 = call zeroext i1 @SDL_SYS_HapticNewEffect(ptr noundef %50, ptr noundef %56, ptr noundef %57)
  br i1 %58, label %60, label %59

59:                                               ; preds = %49
  store i32 -1, ptr %3, align 4
  store i32 1, ptr %7, align 4
  br label %76

60:                                               ; preds = %49
  %61 = load ptr, ptr %4, align 8
  %62 = getelementptr inbounds nuw %struct.SDL_Haptic, ptr %61, i32 0, i32 2
  %63 = load ptr, ptr %62, align 8
  %64 = load i32, ptr %6, align 4
  %65 = sext i32 %64 to i64
  %66 = getelementptr inbounds %struct.haptic_effect, ptr %63, i64 %65
  %67 = getelementptr inbounds nuw %struct.haptic_effect, ptr %66, i32 0, i32 0
  %68 = load ptr, ptr %5, align 8
  call void @llvm.memcpy.p0.p0.i64(ptr align 8 %67, ptr align 8 %68, i64 72, i1 false)
  %69 = load i32, ptr %6, align 4
  store i32 %69, ptr %3, align 4
  store i32 1, ptr %7, align 4
  br label %76

70:                                               ; preds = %39
  br label %71

71:                                               ; preds = %70
  %72 = load i32, ptr %6, align 4
  %73 = add nsw i32 %72, 1
  store i32 %73, ptr %6, align 4
  br label %33, !llvm.loop !14

74:                                               ; preds = %33
  %75 = call zeroext i1 (ptr, ...) @SDL_SetError_REAL(ptr noundef @.str.8)
  store i32 -1, ptr %3, align 4
  store i32 1, ptr %7, align 4
  br label %76

76:                                               ; preds = %74, %60, %59, %28, %23, %15, %10
  call void @llvm.lifetime.end.p0(i64 4, ptr %6) #7
  %77 = load i32, ptr %3, align 4
  ret i32 %77
}