; Function Attrs: nounwind uwtable
define hidden i32 @SDL_CreateHapticEffect_REAL(ptr noundef %0, ptr noundef %1) local_unnamed_addr #0 {
  %3 = tail call zeroext i1 @SDL_ObjectValid(ptr noundef %0, i32 noundef 6) #9
  br i1 %3, label %6, label %4

4:                                                ; preds = %2
  %5 = tail call zeroext i1 (ptr, ...) @SDL_SetError_REAL(ptr noundef nonnull @.str, ptr noundef nonnull @.str.1) #9
  br label %41

6:                                                ; preds = %2
  %.not = icmp eq ptr %1, null
  br i1 %.not, label %7, label %9

7:                                                ; preds = %6
  %8 = tail call zeroext i1 (ptr, ...) @SDL_SetError_REAL(ptr noundef nonnull @.str, ptr noundef nonnull @.str.6) #9
  br label %41

9:                                                ; preds = %6
  %10 = tail call zeroext i1 @SDL_ObjectValid(ptr noundef %0, i32 noundef 6) #9
  br i1 %10, label %SDL_HapticEffectSupported_REAL.exit, label %SDL_HapticEffectSupported_REAL.exit.thread

SDL_HapticEffectSupported_REAL.exit.thread:       ; preds = %9
  %11 = tail call zeroext i1 (ptr, ...) @SDL_SetError_REAL(ptr noundef nonnull @.str, ptr noundef nonnull @.str.1) #9
  br label %17

SDL_HapticEffectSupported_REAL.exit:              ; preds = %9
  %12 = getelementptr inbounds nuw i8, ptr %0, i64 32
  %13 = load i32, ptr %12, align 8
  %14 = load i16, ptr %1, align 8
  %15 = zext i16 %14 to i32
  %16 = and i32 %13, %15
  %.not6.i.not = icmp eq i32 %16, 0
  br i1 %.not6.i.not, label %17, label %19

17:                                               ; preds = %SDL_HapticEffectSupported_REAL.exit.thread, %SDL_HapticEffectSupported_REAL.exit
  %18 = tail call zeroext i1 (ptr, ...) @SDL_SetError_REAL(ptr noundef nonnull @.str.7) #9
  br label %41

19:                                               ; preds = %SDL_HapticEffectSupported_REAL.exit
  %20 = tail call zeroext i1 @SDL_HIDAPI_HapticIsHidapi(ptr noundef nonnull %0) #9
  br i1 %20, label %26, label %.preheader

.preheader:                                       ; preds = %19
  %21 = getelementptr inbounds nuw i8, ptr %0, i64 24
  %22 = load i32, ptr %21, align 8
  %23 = icmp sgt i32 %22, 0
  br i1 %23, label %.lr.ph, label %._crit_edge

.lr.ph:                                           ; preds = %.preheader
  %24 = getelementptr inbounds nuw i8, ptr %0, i64 16
  %25 = load ptr, ptr %24, align 8
  %wide.trip.count = zext nneg i32 %22 to i64
  br label %28

26:                                               ; preds = %19
  %27 = tail call i32 @SDL_HIDAPI_HapticNewEffect(ptr noundef nonnull %0, ptr noundef nonnull %1) #9
  br label %41

28:                                               ; preds = %.lr.ph, %39
  %indvars.iv = phi i64 [ 0, %.lr.ph ], [ %indvars.iv.next, %39 ]
  %29 = getelementptr inbounds nuw %struct.haptic_effect, ptr %25, i64 %indvars.iv
  %30 = getelementptr inbounds nuw i8, ptr %29, i64 72
  %31 = load ptr, ptr %30, align 8
  %32 = icmp eq ptr %31, null
  br i1 %32, label %33, label %39

33:                                               ; preds = %28
  %34 = tail call zeroext i1 @SDL_SYS_HapticNewEffect(ptr noundef nonnull %0, ptr noundef nonnull %29, ptr noundef nonnull %1) #9
  br i1 %34, label %35, label %41

35:                                               ; preds = %33
  %36 = trunc nuw nsw i64 %indvars.iv to i32
  %37 = load ptr, ptr %24, align 8
  %38 = getelementptr inbounds nuw %struct.haptic_effect, ptr %37, i64 %indvars.iv
  tail call void @llvm.memcpy.p0.p0.i64(ptr noundef nonnull align 8 dereferenceable(72) %38, ptr noundef nonnull align 8 dereferenceable(72) %1, i64 72, i1 false)
  br label %41

39:                                               ; preds = %28
  %indvars.iv.next = add nuw nsw i64 %indvars.iv, 1
  %exitcond.not = icmp eq i64 %indvars.iv.next, %wide.trip.count
  br i1 %exitcond.not, label %._crit_edge, label %28, !llvm.loop !14

._crit_edge:                                      ; preds = %39, %.preheader
  %40 = tail call zeroext i1 (ptr, ...) @SDL_SetError_REAL(ptr noundef nonnull @.str.8) #9
  br label %41

41:                                               ; preds = %33, %._crit_edge, %35, %26, %17, %7, %4
  %.020 = phi i32 [ -1, %17 ], [ %27, %26 ], [ %36, %35 ], [ -1, %._crit_edge ], [ -1, %7 ], [ -1, %4 ], [ -1, %33 ]
  ret i32 %.020
}